; ModuleID = '36/429.c'
source_filename = "36/429.c"
target datalayout = "e-m:e-p270:32:32-p271:32:32-p272:64:64-i64:64-f80:128-n8:16:32:64-S128"
target triple = "x86_64-pc-linux-gnu"

@.str = private unnamed_addr constant [5 x i8] c"%s%s\00", align 1
@.str.1 = private unnamed_addr constant [5 x i8] c"YES\0A\00", align 1
@.str.2 = private unnamed_addr constant [4 x i8] c"NO\0A\00", align 1

; Function Attrs: noinline nounwind uwtable
define dso_local void @main() #0 {
  %1 = alloca [26 x i32], align 16
  %2 = alloca [26 x i32], align 16
  %3 = alloca [100 x i8], align 16
  %4 = alloca [100 x i8], align 16
  %5 = bitcast [26 x i32]* %1 to i8*
  call void @llvm.memset.p0i8.i64(i8* align 16 %5, i8 0, i64 104, i1 false)
  %6 = bitcast [26 x i32]* %2 to i8*
  call void @llvm.memset.p0i8.i64(i8* align 16 %6, i8 0, i64 104, i1 false)
  %7 = getelementptr inbounds [100 x i8], [100 x i8]* %3, i64 0, i64 0
  %8 = getelementptr inbounds [100 x i8], [100 x i8]* %4, i64 0, i64 0
  %9 = call i32 (i8*, ...) @__isoc99_scanf(i8* getelementptr inbounds ([5 x i8], [5 x i8]* @.str, i64 0, i64 0), i8* %7, i8* %8)
  %10 = getelementptr inbounds [100 x i8], [100 x i8]* %3, i64 0, i64 0
  %11 = getelementptr inbounds [26 x i32], [26 x i32]* %1, i64 0, i64 0
  call void @f(i8* %10, i32* %11)
  %12 = getelementptr inbounds [100 x i8], [100 x i8]* %4, i64 0, i64 0
  %13 = getelementptr inbounds [26 x i32], [26 x i32]* %2, i64 0, i64 0
  call void @f(i8* %12, i32* %13)
  %14 = getelementptr inbounds [26 x i32], [26 x i32]* %1, i64 0, i64 0
  %15 = getelementptr inbounds [26 x i32], [26 x i32]* %2, i64 0, i64 0
  %16 = call i32 @g(i32* %14, i32* %15, i32 0)
  %17 = icmp eq i32 %16, 1
  br i1 %17, label %18, label %20

18:                                               ; preds = %0
  %19 = call i32 (i8*, ...) @printf(i8* getelementptr inbounds ([5 x i8], [5 x i8]* @.str.1, i64 0, i64 0))
  br label %22

20:                                               ; preds = %0
  %21 = call i32 (i8*, ...) @printf(i8* getelementptr inbounds ([4 x i8], [4 x i8]* @.str.2, i64 0, i64 0))
  br label %22

22:                                               ; preds = %20, %18
  ret void
}

; Function Attrs: argmemonly nounwind willreturn
declare void @llvm.memset.p0i8.i64(i8* nocapture writeonly, i8, i64, i1 immarg) #1

declare dso_local i32 @__isoc99_scanf(i8*, ...) #2

; Function Attrs: noinline nounwind uwtable
define dso_local void @f(i8* %0, i32* %1) #0 {
  %3 = alloca i8*, align 8
  %4 = alloca i32*, align 8
  %5 = alloca i32, align 4
  %6 = alloca i32, align 4
  store i8* %0, i8** %3, align 8
  store i32* %1, i32** %4, align 8
  %7 = load i8*, i8** %3, align 8
  %8 = call i64 @strlen(i8* %7) #4
  %9 = trunc i64 %8 to i32
  store i32 %9, i32* %6, align 4
  store i32 0, i32* %5, align 4
  br label %10

10:                                               ; preds = %27, %2
  %11 = load i32, i32* %5, align 4
  %12 = load i32, i32* %6, align 4
  %13 = icmp slt i32 %11, %12
  br i1 %13, label %14, label %30

14:                                               ; preds = %10
  %15 = load i32*, i32** %4, align 8
  %16 = load i8*, i8** %3, align 8
  %17 = load i32, i32* %5, align 4
  %18 = sext i32 %17 to i64
  %19 = getelementptr inbounds i8, i8* %16, i64 %18
  %20 = load i8, i8* %19, align 1
  %21 = sext i8 %20 to i32
  %22 = sub nsw i32 %21, 97
  %23 = sext i32 %22 to i64
  %24 = getelementptr inbounds i32, i32* %15, i64 %23
  %25 = load i32, i32* %24, align 4
  %26 = add nsw i32 %25, 1
  store i32 %26, i32* %24, align 4
  br label %27

27:                                               ; preds = %14
  %28 = load i32, i32* %5, align 4
  %29 = add nsw i32 %28, 1
  store i32 %29, i32* %5, align 4
  br label %10

30:                                               ; preds = %10
  ret void
}

; Function Attrs: noinline nounwind uwtable
define dso_local i32 @g(i32* %0, i32* %1, i32 %2) #0 {
  %4 = alloca i32, align 4
  %5 = alloca i32*, align 8
  %6 = alloca i32*, align 8
  %7 = alloca i32, align 4
  store i32* %0, i32** %5, align 8
  store i32* %1, i32** %6, align 8
  store i32 %2, i32* %7, align 4
  %8 = load i32, i32* %7, align 4
  %9 = icmp eq i32 %8, 25
  br i1 %9, label %10, label %20

10:                                               ; preds = %3
  %11 = load i32*, i32** %5, align 8
  %12 = getelementptr inbounds i32, i32* %11, i64 25
  %13 = load i32, i32* %12, align 4
  %14 = load i32*, i32** %6, align 8
  %15 = getelementptr inbounds i32, i32* %14, i64 25
  %16 = load i32, i32* %15, align 4
  %17 = icmp eq i32 %13, %16
  br i1 %17, label %18, label %19

18:                                               ; preds = %10
  store i32 1, i32* %4, align 4
  br label %39

19:                                               ; preds = %10
  store i32 0, i32* %4, align 4
  br label %39

20:                                               ; preds = %3
  %21 = load i32*, i32** %5, align 8
  %22 = load i32, i32* %7, align 4
  %23 = sext i32 %22 to i64
  %24 = getelementptr inbounds i32, i32* %21, i64 %23
  %25 = load i32, i32* %24, align 4
  %26 = load i32*, i32** %6, align 8
  %27 = load i32, i32* %7, align 4
  %28 = sext i32 %27 to i64
  %29 = getelementptr inbounds i32, i32* %26, i64 %28
  %30 = load i32, i32* %29, align 4
  %31 = icmp eq i32 %25, %30
  br i1 %31, label %32, label %38

32:                                               ; preds = %20
  %33 = load i32*, i32** %5, align 8
  %34 = load i32*, i32** %6, align 8
  %35 = load i32, i32* %7, align 4
  %36 = add nsw i32 %35, 1
  %37 = call i32 @g(i32* %33, i32* %34, i32 %36)
  store i32 %37, i32* %4, align 4
  br label %39

38:                                               ; preds = %20
  store i32 0, i32* %4, align 4
  br label %39

39:                                               ; preds = %38, %32, %19, %18
  %40 = load i32, i32* %4, align 4
  ret i32 %40
}

declare dso_local i32 @printf(i8*, ...) #2

; Function Attrs: nounwind readonly
declare dso_local i64 @strlen(i8*) #3


!llvm.module.flags = !{!0}
!llvm.ident = !{!1}

!0 = !{i32 1, !"wchar_size", i32 4}
!1 = !{!"clang version 10.0.0-4ubuntu1 "}
